target datalayout = "e-m:e-p270:32:32-p271:32:32-p272:64:64-i64:64-i128:128-f80:128-n8:16:32:64-S128"
target triple = "x86_64-pc-linux-gnu"

%struct.anon = type { ptr, ptr }
%struct._php_stream_filter_ops = type { ptr, ptr, ptr }

; Function Attrs: nounwind uwtable
define hidden i32 @zm_startup_standard_filters(i32 noundef %0, i32 noundef %1) #0 {
  %3 = alloca i32, align 4
  %4 = alloca i32, align 4
  %5 = alloca i32, align 4
  %6 = alloca i32, align 4
  store i32 %0, ptr %4, align 4
  store i32 %1, ptr %5, align 4
  store i32 0, ptr %6, align 4
  br label %7

7:                                                ; preds = %31, %2
  %8 = load i32, ptr %6, align 4
  %9 = sext i32 %8 to i64
  %10 = getelementptr inbounds [7 x %struct.anon], ptr @standard_filters, i64 0, i64 %9
  %11 = getelementptr inbounds %struct.anon, ptr %10, i32 0, i32 0
  %12 = load ptr, ptr %11, align 16
  %13 = icmp ne ptr %12, null
  br i1 %13, label %14, label %34

14:                                               ; preds = %7
  %15 = load i32, ptr %6, align 4
  %16 = sext i32 %15 to i64
  %17 = getelementptr inbounds [7 x %struct.anon], ptr @standard_filters, i64 0, i64 %16
  %18 = getelementptr inbounds %struct.anon, ptr %17, i32 0, i32 0
  %19 = load ptr, ptr %18, align 16
  %20 = getelementptr inbounds %struct._php_stream_filter_ops, ptr %19, i32 0, i32 2
  %21 = load ptr, ptr %20, align 8
  %22 = load i32, ptr %6, align 4
  %23 = sext i32 %22 to i64
  %24 = getelementptr inbounds [7 x %struct.anon], ptr @standard_filters, i64 0, i64 %23
  %25 = getelementptr inbounds %struct.anon, ptr %24, i32 0, i32 1
  %26 = load ptr, ptr %25, align 8
  %27 = call i32 @php_stream_filter_register_factory(ptr noundef %21, ptr noundef %26)
  %28 = icmp eq i32 -1, %27
  br i1 %28, label %29, label %30

29:                                               ; preds = %14
  store i32 -1, ptr %3, align 4
  br label %35

30:                                               ; preds = %14
  br label %31

31:                                               ; preds = %30
  %32 = load i32, ptr %6, align 4
  %33 = add nsw i32 %32, 1
  store i32 %33, ptr %6, align 4
  br label %7

34:                                               ; preds = %7
  store i32 0, ptr %3, align 4
  br label %35

35:                                               ; preds = %34, %29
  %36 = load i32, ptr %3, align 4
  ret i32 %36
}