; Function Attrs: nounwind uwtable
define hidden noundef i32 @zm_startup_standard_filters(i32 noundef %0, i32 noundef %1) local_unnamed_addr #0 {
  br label %6

3:                                                ; preds = %6
  %indvars.iv.next = add nuw nsw i64 %indvars.iv, 1
  %4 = getelementptr inbounds [7 x %struct.anon], ptr @standard_filters, i64 0, i64 %indvars.iv.next
  %5 = load ptr, ptr %4, align 16
  %exitcond = icmp eq i64 %indvars.iv.next, 6
  br i1 %exitcond, label %15, label %6

6:                                                ; preds = %2, %3
  %indvars.iv = phi i64 [ 0, %2 ], [ %indvars.iv.next, %3 ]
  %7 = phi ptr [ @strfilter_rot13_ops, %2 ], [ %5, %3 ]
  %8 = phi ptr [ @standard_filters, %2 ], [ %4, %3 ]
  %9 = getelementptr inbounds i8, ptr %7, i64 16
  %10 = load ptr, ptr %9, align 8
  %11 = getelementptr inbounds i8, ptr %8, i64 8
  %12 = load ptr, ptr %11, align 8
  %13 = tail call i32 @php_stream_filter_register_factory(ptr noundef %10, ptr noundef %12) #18
  %14 = icmp eq i32 %13, -1
  br i1 %14, label %15, label %3

15:                                               ; preds = %3, %6
  %.05 = phi i32 [ -1, %6 ], [ 0, %3 ]
  ret i32 %.05
}